target datalayout = "e-m:e-p270:32:32-p271:32:32-p272:64:64-i64:64-i128:128-f80:128-n8:16:32:64-S128"
target triple = "x86_64-pc-linux-gnu"

@.str.21 = private unnamed_addr constant [14 x i8] c"external hook\00", align 1
@.str.22 = private unnamed_addr constant [9 x i8] c"_HOOKKEY\00", align 1
@.str.28 = private unnamed_addr constant [15 x i8] c"stack overflow\00", align 1

; Function Attrs: nounwind uwtable
define internal ptr @unmakemask(i32 noundef %0, ptr noundef %1) #0 {
  %3 = alloca i32, align 4
  %4 = alloca ptr, align 8
  %5 = alloca i32, align 4
  store i32 %0, ptr %3, align 4, !tbaa !11
  store ptr %1, ptr %4, align 8, !tbaa !14
  call void @llvm.lifetime.start.p0(i64 4, ptr %5) #6
  store i32 0, ptr %5, align 4, !tbaa !11
  %6 = load i32, ptr %3, align 4, !tbaa !11
  %7 = and i32 %6, 1
  %8 = icmp ne i32 %7, 0
  br i1 %8, label %9, label %15

9:                                                ; preds = %2
  %10 = load ptr, ptr %4, align 8, !tbaa !14
  %11 = load i32, ptr %5, align 4, !tbaa !11
  %12 = add nsw i32 %11, 1
  store i32 %12, ptr %5, align 4, !tbaa !11
  %13 = sext i32 %11 to i64
  %14 = getelementptr inbounds i8, ptr %10, i64 %13
  store i8 99, ptr %14, align 1, !tbaa !16
  br label %15

15:                                               ; preds = %9, %2
  %16 = load i32, ptr %3, align 4, !tbaa !11
  %17 = and i32 %16, 2
  %18 = icmp ne i32 %17, 0
  br i1 %18, label %19, label %25

19:                                               ; preds = %15
  %20 = load ptr, ptr %4, align 8, !tbaa !14
  %21 = load i32, ptr %5, align 4, !tbaa !11
  %22 = add nsw i32 %21, 1
  store i32 %22, ptr %5, align 4, !tbaa !11
  %23 = sext i32 %21 to i64
  %24 = getelementptr inbounds i8, ptr %20, i64 %23
  store i8 114, ptr %24, align 1, !tbaa !16
  br label %25

25:                                               ; preds = %19, %15
  %26 = load i32, ptr %3, align 4, !tbaa !11
  %27 = and i32 %26, 4
  %28 = icmp ne i32 %27, 0
  br i1 %28, label %29, label %35

29:                                               ; preds = %25
  %30 = load ptr, ptr %4, align 8, !tbaa !14
  %31 = load i32, ptr %5, align 4, !tbaa !11
  %32 = add nsw i32 %31, 1
  store i32 %32, ptr %5, align 4, !tbaa !11
  %33 = sext i32 %31 to i64
  %34 = getelementptr inbounds i8, ptr %30, i64 %33
  store i8 108, ptr %34, align 1, !tbaa !16
  br label %35

35:                                               ; preds = %29, %25
  %36 = load ptr, ptr %4, align 8, !tbaa !14
  %37 = load i32, ptr %5, align 4, !tbaa !11
  %38 = sext i32 %37 to i64
  %39 = getelementptr inbounds i8, ptr %36, i64 %38
  store i8 0, ptr %39, align 1, !tbaa !16
  %40 = load ptr, ptr %4, align 8, !tbaa !14
  call void @llvm.lifetime.end.p0(i64 4, ptr %5) #6
  ret ptr %40
}

; Function Attrs: nounwind uwtable
define internal void @checkstack(ptr noundef %0, ptr noundef %1, i32 noundef %2) #0 {
  %4 = alloca ptr, align 8
  %5 = alloca ptr, align 8
  %6 = alloca i32, align 4
  store ptr %0, ptr %4, align 8, !tbaa !4
  store ptr %1, ptr %5, align 8, !tbaa !4
  store i32 %2, ptr %6, align 4, !tbaa !11
  %7 = load ptr, ptr %4, align 8, !tbaa !4
  %8 = load ptr, ptr %5, align 8, !tbaa !4
  %9 = icmp ne ptr %7, %8
  br i1 %9, label %10, label %16

10:                                               ; preds = %3
  %11 = load ptr, ptr %5, align 8, !tbaa !4
  %12 = load i32, ptr %6, align 4, !tbaa !11
  %13 = call i32 @lua_checkstack(ptr noundef %11, i32 noundef %12)
  %14 = icmp ne i32 %13, 0
  %15 = xor i1 %14, true
  br label %16

16:                                               ; preds = %10, %3
  %17 = phi i1 [ false, %3 ], [ %15, %10 ]
  %18 = zext i1 %17 to i32
  %19 = icmp ne i32 %18, 0
  %20 = zext i1 %19 to i32
  %21 = sext i32 %20 to i64
  %22 = call i64 @llvm.expect.i64(i64 %21, i64 0)
  %23 = icmp ne i64 %22, 0
  br i1 %23, label %24, label %27

24:                                               ; preds = %16
  %25 = load ptr, ptr %4, align 8, !tbaa !4
  %26 = call i32 (ptr, ptr, ...) @luaL_error(ptr noundef %25, ptr noundef @.str.28)
  br label %27

27:                                               ; preds = %24, %16
  ret void
}

; Function Attrs: nounwind uwtable
define internal ptr @getthread(ptr noundef %0, ptr noundef %1) #0 {
  %3 = alloca ptr, align 8
  %4 = alloca ptr, align 8
  %5 = alloca ptr, align 8
  store ptr %0, ptr %4, align 8, !tbaa !4
  store ptr %1, ptr %5, align 8, !tbaa !35
  %6 = load ptr, ptr %4, align 8, !tbaa !4
  %7 = call i32 @lua_type(ptr noundef %6, i32 noundef 1)
  %8 = icmp eq i32 %7, 8
  br i1 %8, label %9, label %13

9:                                                ; preds = %2
  %10 = load ptr, ptr %5, align 8, !tbaa !35
  store i32 1, ptr %10, align 4, !tbaa !11
  %11 = load ptr, ptr %4, align 8, !tbaa !4
  %12 = call ptr @lua_tothread(ptr noundef %11, i32 noundef 1)
  store ptr %12, ptr %3, align 8
  br label %16

13:                                               ; preds = %2
  %14 = load ptr, ptr %5, align 8, !tbaa !35
  store i32 0, ptr %14, align 4, !tbaa !11
  %15 = load ptr, ptr %4, align 8, !tbaa !4
  store ptr %15, ptr %3, align 8
  br label %16

16:                                               ; preds = %13, %9
  %17 = load ptr, ptr %3, align 8
  ret ptr %17
}

; Function Attrs: nounwind uwtable
define internal i32 @db_gethook(ptr noundef %0) #0 {
  %2 = alloca i32, align 4
  %3 = alloca ptr, align 8
  %4 = alloca i32, align 4
  %5 = alloca ptr, align 8
  %6 = alloca [5 x i8], align 1
  %7 = alloca i32, align 4
  %8 = alloca ptr, align 8
  %9 = alloca i32, align 4
  store ptr %0, ptr %3, align 8, !tbaa !4
  call void @llvm.lifetime.start.p0(i64 4, ptr %4) #6
  call void @llvm.lifetime.start.p0(i64 8, ptr %5) #6
  %10 = load ptr, ptr %3, align 8, !tbaa !4
  %11 = call ptr @getthread(ptr noundef %10, ptr noundef %4)
  store ptr %11, ptr %5, align 8, !tbaa !4
  call void @llvm.lifetime.start.p0(i64 5, ptr %6) #6
  call void @llvm.lifetime.start.p0(i64 4, ptr %7) #6
  %12 = load ptr, ptr %5, align 8, !tbaa !4
  %13 = call i32 @lua_gethookmask(ptr noundef %12)
  store i32 %13, ptr %7, align 4, !tbaa !11
  call void @llvm.lifetime.start.p0(i64 8, ptr %8) #6
  %14 = load ptr, ptr %5, align 8, !tbaa !4
  %15 = call ptr @lua_gethook(ptr noundef %14)
  store ptr %15, ptr %8, align 8, !tbaa !13
  %16 = load ptr, ptr %8, align 8, !tbaa !13
  %17 = icmp eq ptr %16, null
  br i1 %17, label %18, label %20

18:                                               ; preds = %1
  %19 = load ptr, ptr %3, align 8, !tbaa !4
  call void @lua_pushnil(ptr noundef %19)
  store i32 1, ptr %2, align 4
  store i32 1, ptr %9, align 4
  br label %50

20:                                               ; preds = %1
  %21 = load ptr, ptr %8, align 8, !tbaa !13
  %22 = icmp ne ptr %21, @hookf
  br i1 %22, label %23, label %26

23:                                               ; preds = %20
  %24 = load ptr, ptr %3, align 8, !tbaa !4
  %25 = call ptr @lua_pushstring(ptr noundef %24, ptr noundef @.str.21)
  br label %39

26:                                               ; preds = %20
  %27 = load ptr, ptr %3, align 8, !tbaa !4
  %28 = call i32 @lua_getfield(ptr noundef %27, i32 noundef -1001000, ptr noundef @.str.22)
  %29 = load ptr, ptr %3, align 8, !tbaa !4
  %30 = load ptr, ptr %5, align 8, !tbaa !4
  call void @checkstack(ptr noundef %29, ptr noundef %30, i32 noundef 1)
  %31 = load ptr, ptr %5, align 8, !tbaa !4
  %32 = call i32 @lua_pushthread(ptr noundef %31)
  %33 = load ptr, ptr %5, align 8, !tbaa !4
  %34 = load ptr, ptr %3, align 8, !tbaa !4
  call void @lua_xmove(ptr noundef %33, ptr noundef %34, i32 noundef 1)
  %35 = load ptr, ptr %3, align 8, !tbaa !4
  %36 = call i32 @lua_rawget(ptr noundef %35, i32 noundef -2)
  %37 = load ptr, ptr %3, align 8, !tbaa !4
  call void @lua_rotate(ptr noundef %37, i32 noundef -2, i32 noundef -1)
  %38 = load ptr, ptr %3, align 8, !tbaa !4
  call void @lua_settop(ptr noundef %38, i32 noundef -2)
  br label %39

39:                                               ; preds = %26, %23
  br label %40

40:                                               ; preds = %39
  %41 = load ptr, ptr %3, align 8, !tbaa !4
  %42 = load i32, ptr %7, align 4, !tbaa !11
  %43 = getelementptr inbounds [5 x i8], ptr %6, i64 0, i64 0
  %44 = call ptr @unmakemask(i32 noundef %42, ptr noundef %43)
  %45 = call ptr @lua_pushstring(ptr noundef %41, ptr noundef %44)
  %46 = load ptr, ptr %3, align 8, !tbaa !4
  %47 = load ptr, ptr %5, align 8, !tbaa !4
  %48 = call i32 @lua_gethookcount(ptr noundef %47)
  %49 = sext i32 %48 to i64
  call void @lua_pushinteger(ptr noundef %46, i64 noundef %49)
  store i32 3, ptr %2, align 4
  store i32 1, ptr %9, align 4
  br label %50

50:                                               ; preds = %40, %18
  call void @llvm.lifetime.end.p0(i64 8, ptr %8) #6
  call void @llvm.lifetime.end.p0(i64 4, ptr %7) #6
  call void @llvm.lifetime.end.p0(i64 5, ptr %6) #6
  call void @llvm.lifetime.end.p0(i64 8, ptr %5) #6
  call void @llvm.lifetime.end.p0(i64 4, ptr %4) #6
  %51 = load i32, ptr %2, align 4
  ret i32 %51
}