; Function Attrs: nounwind uwtable
define internal range(i32 1, 4) i32 @db_gethook(ptr noundef %0) #0 {
  %2 = alloca [5 x i8], align 1
  %3 = tail call i32 @lua_type(ptr noundef %0, i32 noundef 1) #8
  %4 = icmp eq i32 %3, 8
  br i1 %4, label %5, label %getthread.exit

5:                                                ; preds = %1
  %6 = tail call ptr @lua_tothread(ptr noundef %0, i32 noundef 1) #8
  br label %getthread.exit

getthread.exit:                                   ; preds = %1, %5
  %.0.i = phi ptr [ %6, %5 ], [ %0, %1 ]
  call void @llvm.lifetime.start.p0(i64 5, ptr nonnull %2) #8
  %7 = tail call i32 @lua_gethookmask(ptr noundef %.0.i) #8
  %8 = tail call ptr @lua_gethook(ptr noundef %.0.i) #8
  %9 = icmp eq ptr %8, null
  br i1 %9, label %10, label %11

10:                                               ; preds = %getthread.exit
  tail call void @lua_pushnil(ptr noundef %0) #8
  br label %42

11:                                               ; preds = %getthread.exit
  %.not = icmp eq ptr %8, @hookf
  br i1 %.not, label %14, label %12

12:                                               ; preds = %11
  %13 = tail call ptr @lua_pushstring(ptr noundef %0, ptr noundef nonnull @.str.21) #8
  br label %22

14:                                               ; preds = %11
  %15 = tail call i32 @lua_getfield(ptr noundef %0, i32 noundef -1001000, ptr noundef nonnull @.str.22) #8
  %.not.i = icmp eq ptr %0, %.0.i
  br i1 %.not.i, label %checkstack.exit, label %16

16:                                               ; preds = %14
  %17 = tail call i32 @lua_checkstack(ptr noundef %.0.i, i32 noundef 1) #8
  %.not4.i = icmp eq i32 %17, 0
  br i1 %.not4.i, label %18, label %checkstack.exit, !prof !9

18:                                               ; preds = %16
  %19 = tail call i32 (ptr, ptr, ...) @luaL_error(ptr noundef %0, ptr noundef nonnull @.str.28) #8
  br label %checkstack.exit

checkstack.exit:                                  ; preds = %14, %16, %18
  %20 = tail call i32 @lua_pushthread(ptr noundef %.0.i) #8
  tail call void @lua_xmove(ptr noundef %.0.i, ptr noundef %0, i32 noundef 1) #8
  %21 = tail call i32 @lua_rawget(ptr noundef %0, i32 noundef -2) #8
  tail call void @lua_rotate(ptr noundef %0, i32 noundef -2, i32 noundef -1) #8
  tail call void @lua_settop(ptr noundef %0, i32 noundef -2) #8
  br label %22

22:                                               ; preds = %12, %checkstack.exit
  %23 = and i32 %7, 1
  %.not.i21 = icmp eq i32 %23, 0
  br i1 %.not.i21, label %25, label %24

24:                                               ; preds = %22
  store i8 99, ptr %2, align 1, !tbaa !10
  br label %25

25:                                               ; preds = %24, %22
  %.0.i22 = phi i32 [ 1, %24 ], [ 0, %22 ]
  %26 = and i32 %7, 2
  %.not11.i = icmp eq i32 %26, 0
  br i1 %.not11.i, label %31, label %27

27:                                               ; preds = %25
  %28 = add nuw nsw i32 %.0.i22, 1
  %29 = zext nneg i32 %.0.i22 to i64
  %30 = getelementptr inbounds nuw i8, ptr %2, i64 %29
  store i8 114, ptr %30, align 1, !tbaa !10
  br label %31

31:                                               ; preds = %27, %25
  %.1.i = phi i32 [ %28, %27 ], [ %.0.i22, %25 ]
  %32 = and i32 %7, 4
  %.not12.i = icmp eq i32 %32, 0
  br i1 %.not12.i, label %unmakemask.exit, label %33

33:                                               ; preds = %31
  %34 = add nuw nsw i32 %.1.i, 1
  %35 = zext nneg i32 %.1.i to i64
  %36 = getelementptr inbounds nuw i8, ptr %2, i64 %35
  store i8 108, ptr %36, align 1, !tbaa !10
  br label %unmakemask.exit

unmakemask.exit:                                  ; preds = %31, %33
  %.2.i = phi i32 [ %34, %33 ], [ %.1.i, %31 ]
  %37 = zext nneg i32 %.2.i to i64
  %38 = getelementptr inbounds nuw i8, ptr %2, i64 %37
  store i8 0, ptr %38, align 1, !tbaa !10
  %39 = call ptr @lua_pushstring(ptr noundef %0, ptr noundef nonnull %2) #8
  %40 = call i32 @lua_gethookcount(ptr noundef %.0.i) #8
  %41 = sext i32 %40 to i64
  call void @lua_pushinteger(ptr noundef %0, i64 noundef %41) #8
  br label %42

42:                                               ; preds = %unmakemask.exit, %10
  %.0 = phi i32 [ 1, %10 ], [ 3, %unmakemask.exit ]
  call void @llvm.lifetime.end.p0(i64 5, ptr nonnull %2) #8
  ret i32 %.0
}